target datalayout = "e-m:e-p270:32:32-p271:32:32-p272:64:64-i64:64-i128:128-f80:128-n8:16:32:64-S128"
target triple = "x86_64-unknown-linux-gnu"

; Function Attrs: mustprogress nounwind uwtable
define internal noundef signext i8 @_ZL9U_SUCCESS10UErrorCode(i32 noundef %code) #2 {
entry:
  %code.addr = alloca i32, align 4
  store i32 %code, ptr %code.addr, align 4
  %0 = load i32, ptr %code.addr, align 4
  %cmp = icmp sle i32 %0, 0
  %conv = zext i1 %cmp to i8
  ret i8 %conv
}

; Function Attrs: mustprogress uwtable
define internal noundef signext i8 @_ZL21isCanonSegmentStarterRK14BinaryPropertyi9UProperty(ptr noundef nonnull align 8 dereferenceable(16) %0, i32 noundef %c, i32 noundef %1) #0 {
entry:
  %.addr = alloca ptr, align 8
  %c.addr = alloca i32, align 4
  %.addr1 = alloca i32, align 4
  %errorCode = alloca i32, align 4
  %impl = alloca ptr, align 8
  store ptr %0, ptr %.addr, align 8
  store i32 %c, ptr %c.addr, align 4
  store i32 %1, ptr %.addr1, align 4
  store i32 0, ptr %errorCode, align 4
  %call = call noundef ptr @_ZN6icu_7518Normalizer2Factory10getNFCImplER10UErrorCode(ptr noundef nonnull align 4 dereferenceable(4) %errorCode)
  store ptr %call, ptr %impl, align 8
  %2 = load i32, ptr %errorCode, align 4
  %call2 = call noundef signext i8 @_ZL9U_SUCCESS10UErrorCode(i32 noundef %2)
  %tobool = icmp ne i8 %call2, 0
  br i1 %tobool, label %land.lhs.true, label %land.end

land.lhs.true:                                    ; preds = %entry
  %3 = load ptr, ptr %impl, align 8
  %call3 = call noundef signext i8 @_ZNK6icu_7515Normalizer2Impl19ensureCanonIterDataER10UErrorCode(ptr noundef nonnull align 8 dereferenceable(80) %3, ptr noundef nonnull align 4 dereferenceable(4) %errorCode)
  %tobool4 = icmp ne i8 %call3, 0
  br i1 %tobool4, label %land.rhs, label %land.end

land.rhs:                                         ; preds = %land.lhs.true
  %4 = load ptr, ptr %impl, align 8
  %5 = load i32, ptr %c.addr, align 4
  %call5 = call noundef signext i8 @_ZNK6icu_7515Normalizer2Impl21isCanonSegmentStarterEi(ptr noundef nonnull align 8 dereferenceable(80) %4, i32 noundef %5)
  %tobool6 = icmp ne i8 %call5, 0
  br label %land.end

land.end:                                         ; preds = %land.rhs, %land.lhs.true, %entry
  %6 = phi i1 [ false, %land.lhs.true ], [ false, %entry ], [ %tobool6, %land.rhs ]
  %conv = zext i1 %6 to i8
  ret i8 %conv
}