; Function Attrs: mustprogress uwtable
define internal noundef signext i8 @_ZL21isCanonSegmentStarterRK14BinaryPropertyi9UProperty(ptr nocapture nonnull readnone align 8 %0, i32 noundef %c, i32 %1) #0 {
entry:
  %errorCode = alloca i32, align 4
  store i32 0, ptr %errorCode, align 4
  %call = call noundef ptr @_ZN6icu_7518Normalizer2Factory10getNFCImplER10UErrorCode(ptr noundef nonnull align 4 dereferenceable(4) %errorCode)
  %2 = load i32, ptr %errorCode, align 4
  %cmp.i = icmp sgt i32 %2, 0
  br i1 %cmp.i, label %land.end, label %land.lhs.true

land.lhs.true:                                    ; preds = %entry
  %call3 = call noundef signext i8 @_ZNK6icu_7515Normalizer2Impl19ensureCanonIterDataER10UErrorCode(ptr noundef nonnull align 8 dereferenceable(80) %call, ptr noundef nonnull align 4 dereferenceable(4) %errorCode)
  %tobool4.not = icmp eq i8 %call3, 0
  br i1 %tobool4.not, label %land.end, label %land.rhs

land.rhs:                                         ; preds = %land.lhs.true
  %call5 = call noundef signext i8 @_ZNK6icu_7515Normalizer2Impl21isCanonSegmentStarterEi(ptr noundef nonnull align 8 dereferenceable(80) %call, i32 noundef %c)
  %tobool6 = icmp ne i8 %call5, 0
  %3 = zext i1 %tobool6 to i8
  br label %land.end

land.end:                                         ; preds = %land.rhs, %land.lhs.true, %entry
  %conv = phi i8 [ 0, %land.lhs.true ], [ 0, %entry ], [ %3, %land.rhs ]
  ret i8 %conv
}